; Function Attrs: mustprogress uwtable
define dso_local i64 @_ZN12cmFileCopier22CollectMatchPropertiesERKNSt7__cxx1112basic_stringIcSt11char_traitsIcESaIcEEE(ptr nocapture noundef nonnull readonly align 8 dereferenceable(244) %0, ptr noundef nonnull align 8 dereferenceable(32) %1) local_unnamed_addr #3 align 2 {
  %3 = getelementptr inbounds i8, ptr %0, i64 112
  %4 = load ptr, ptr %3, align 8
  %5 = getelementptr inbounds i8, ptr %0, i64 120
  %6 = load ptr, ptr %5, align 8
  %.not1617 = icmp eq ptr %4, %6
  br i1 %.not1617, label %._crit_edge.thread, label %.lr.ph

.lr.ph:                                           ; preds = %2, %17
  %.021 = phi i8 [ %.1, %17 ], [ 0, %2 ]
  %.sroa.515.020 = phi i32 [ %.sroa.515.1, %17 ], [ 0, %2 ]
  %.sroa.010.019 = phi ptr [ %18, %17 ], [ %4, %2 ]
  %.sroa.013.018 = phi i8 [ %.sroa.013.1, %17 ], [ 0, %2 ]
  %7 = tail call noundef ptr @_ZNKSt7__cxx1112basic_stringIcSt11char_traitsIcESaIcEE5c_strEv(ptr noundef nonnull align 8 dereferenceable(32) %1) #18
  %8 = tail call noundef zeroext i1 @_ZNK5cmsys17RegularExpression4findEPKcRNS_22RegularExpressionMatchE(ptr noundef nonnull align 8 dereferenceable(556) %.sroa.010.019, ptr noundef %7, ptr noundef nonnull align 8 dereferenceable(520) %.sroa.010.019)
  br i1 %8, label %9, label %17

9:                                                ; preds = %.lr.ph
  %10 = getelementptr inbounds i8, ptr %.sroa.010.019, i64 560
  %11 = load i8, ptr %10, align 8
  %12 = or i8 %11, %.sroa.013.018
  %13 = and i8 %12, 1
  %14 = getelementptr inbounds i8, ptr %.sroa.010.019, i64 564
  %15 = load i32, ptr %14, align 4
  %16 = or i32 %15, %.sroa.515.020
  br label %17

17:                                               ; preds = %.lr.ph, %9
  %.sroa.013.1 = phi i8 [ %13, %9 ], [ %.sroa.013.018, %.lr.ph ]
  %.sroa.515.1 = phi i32 [ %16, %9 ], [ %.sroa.515.020, %.lr.ph ]
  %.1 = phi i8 [ 1, %9 ], [ %.021, %.lr.ph ]
  %18 = getelementptr inbounds i8, ptr %.sroa.010.019, i64 600
  %.not16 = icmp eq ptr %18, %6
  br i1 %.not16, label %._crit_edge, label %.lr.ph

._crit_edge:                                      ; preds = %17
  %19 = and i8 %.1, 1
  %20 = icmp eq i8 %19, 0
  %21 = zext i32 %.sroa.515.1 to i64
  %22 = shl nuw i64 %21, 32
  br i1 %20, label %._crit_edge.thread, label %30

._crit_edge.thread:                               ; preds = %2, %._crit_edge
  %.sroa.515.0.lcssa29 = phi i64 [ %22, %._crit_edge ], [ 0, %2 ]
  %.sroa.013.0.lcssa27 = phi i8 [ %.sroa.013.1, %._crit_edge ], [ 0, %2 ]
  %23 = getelementptr inbounds i8, ptr %0, i64 96
  %24 = load i8, ptr %23, align 8
  %25 = and i8 %24, 1
  %.not9 = icmp eq i8 %25, 0
  br i1 %.not9, label %26, label %30

26:                                               ; preds = %._crit_edge.thread
  %27 = tail call noundef zeroext i1 @_ZN5cmsys11SystemTools15FileIsDirectoryERKNSt7__cxx1112basic_stringIcSt11char_traitsIcESaIcEEE(ptr noundef nonnull align 8 dereferenceable(32) %1)
  %28 = xor i1 %27, true
  %29 = zext i1 %28 to i8
  br label %30

30:                                               ; preds = %26, %._crit_edge.thread, %._crit_edge
  %.sroa.515.0.lcssa28 = phi i64 [ %.sroa.515.0.lcssa29, %26 ], [ %.sroa.515.0.lcssa29, %._crit_edge.thread ], [ %22, %._crit_edge ]
  %.sroa.013.2 = phi i8 [ %29, %26 ], [ %.sroa.013.0.lcssa27, %._crit_edge.thread ], [ %.sroa.013.1, %._crit_edge ]
  %.sroa.013.0.insert.ext = zext nneg i8 %.sroa.013.2 to i64
  %.sroa.013.0.insert.insert = or disjoint i64 %.sroa.515.0.lcssa28, %.sroa.013.0.insert.ext
  ret i64 %.sroa.013.0.insert.insert
}